target datalayout = "e-m:e-p270:32:32-p271:32:32-p272:64:64-i64:64-i128:128-f80:128-n8:16:32:64-S128"
target triple = "x86_64-pc-linux-gnu"

%"class.llvm::StringRef" = type { ptr, i64 }
%"class.clang::targets::ARMTargetInfo" = type { %"class.clang::TargetInfo.base", %"class.std::__cxx11::basic_string", %"class.std::__cxx11::basic_string", %"class.llvm::StringRef", %"class.llvm::StringRef", i32, i32, i32, i32, i32, i32, i32, i32 }
%"class.clang::TargetInfo.base" = type <{ ptr, %"struct.clang::TransferrableTargetInfo.base", %"class.llvm::RefCountedBase", %"class.std::shared_ptr", %"class.llvm::Triple", i8, i8, i8, i8, i8, i8, i8, i8, i8, i8, i8, i8, i8, i8, i8, i8, %"class.std::__cxx11::basic_string", ptr, ptr, i8, i8, [2 x i8], %"class.clang::TargetCXXABI", ptr, %"class.llvm::StringRef", %"class.llvm::VersionTuple", i32, i32, %"class.std::optional", %"class.std::optional.0", %"class.llvm::StringSet", i8 }>
%"struct.clang::TransferrableTargetInfo.base" = type <{ i8, i8, i8, i8, i8, i8, i8, i8, i8, i8, i8, i8, i8, i8, i8, i8, i8, i8, i8, i8, i8, i8, i8, i8, i8, [3 x i8], %"class.std::optional", i8, i8, i8, i8, i8, i8, i8, i8, i8, i8, i8, i8, i8, i8, i8, i8, i8, i8, i16, i16, [2 x i8], i32, i32, [4 x i8], ptr, ptr, ptr, ptr, ptr, ptr, ptr, i32, i32, i32, i32, i32, i32, i32, i32, i32, i32, i32, i32, i8, [3 x i8], i32, i32 }>
%"class.llvm::RefCountedBase" = type { i32 }
%"class.std::shared_ptr" = type { %"class.std::__shared_ptr" }
%"class.std::__shared_ptr" = type { ptr, %"class.std::__shared_count" }
%"class.std::__shared_count" = type { ptr }
%"class.llvm::Triple" = type { %"class.std::__cxx11::basic_string", i32, i32, i32, i32, i32, i32 }
%"class.clang::TargetCXXABI" = type { i32 }
%"class.llvm::VersionTuple" = type { i64, i64 }
%"class.std::optional" = type { %"struct.std::_Optional_base" }
%"struct.std::_Optional_base" = type { %"struct.std::_Optional_payload" }
%"struct.std::_Optional_payload" = type { %"struct.std::_Optional_payload_base.base", [3 x i8] }
%"struct.std::_Optional_payload_base.base" = type <{ %"union.std::_Optional_payload_base<unsigned int>::_Storage", i8 }>
%"union.std::_Optional_payload_base<unsigned int>::_Storage" = type { i32 }
%"class.std::optional.0" = type { %"struct.std::_Optional_base.1" }
%"struct.std::_Optional_base.1" = type { %"struct.std::_Optional_payload.3" }
%"struct.std::_Optional_payload.3" = type { %"struct.std::_Optional_payload.base.7", [7 x i8] }
%"struct.std::_Optional_payload.base.7" = type { %"struct.std::_Optional_payload_base.base.6" }
%"struct.std::_Optional_payload_base.base.6" = type <{ %"union.std::_Optional_payload_base<llvm::Triple>::_Storage", i8 }>
%"union.std::_Optional_payload_base<llvm::Triple>::_Storage" = type { %"class.llvm::Triple" }
%"class.llvm::StringSet" = type { %"class.llvm::StringMap" }
%"class.llvm::StringMap" = type { %"class.llvm::StringMapImpl" }
%"class.llvm::StringMapImpl" = type { ptr, i32, i32, i32, i32 }
%"class.std::__cxx11::basic_string" = type { %"struct.std::__cxx11::basic_string<char>::_Alloc_hider", i64, %union.anon }
%"struct.std::__cxx11::basic_string<char>::_Alloc_hider" = type { ptr }
%union.anon = type { i64, [8 x i8] }
%"class.clang::TargetInfo" = type <{ ptr, %"struct.clang::TransferrableTargetInfo.base", %"class.llvm::RefCountedBase", %"class.std::shared_ptr", %"class.llvm::Triple", i8, i8, i8, i8, i8, i8, i8, i8, i8, i8, i8, i8, i8, i8, i8, i8, %"class.std::__cxx11::basic_string", ptr, ptr, i8, i8, [2 x i8], %"class.clang::TargetCXXABI", ptr, %"class.llvm::StringRef", %"class.llvm::VersionTuple", i32, i32, %"class.std::optional", %"class.std::optional.0", %"class.llvm::StringSet", i8, [7 x i8] }>

; Function Attrs: mustprogress nounwind uwtable
define hidden void @_ZN5clang7targets13ARMTargetInfo9setAtomicEv(ptr noundef nonnull align 8 dereferenceable(624) %0) #0 align 2 {
  %2 = alloca ptr, align 8
  %3 = alloca i8, align 1
  store ptr %0, ptr %2, align 8
  %4 = load ptr, ptr %2, align 8
  %5 = getelementptr inbounds nuw %"class.clang::targets::ARMTargetInfo", ptr %4, i32 0, i32 6
  %6 = load i32, ptr %5, align 4
  %7 = icmp eq i32 %6, 1
  br i1 %7, label %8, label %12

8:                                                ; preds = %1
  %9 = getelementptr inbounds nuw %"class.clang::targets::ARMTargetInfo", ptr %4, i32 0, i32 9
  %10 = load i32, ptr %9, align 8
  %11 = icmp uge i32 %10, 6
  br i1 %11, label %22, label %12

12:                                               ; preds = %8, %1
  %13 = getelementptr inbounds nuw %"class.clang::targets::ARMTargetInfo", ptr %4, i32 0, i32 6
  %14 = load i32, ptr %13, align 4
  %15 = icmp eq i32 %14, 2
  br i1 %15, label %16, label %20

16:                                               ; preds = %12
  %17 = getelementptr inbounds nuw %"class.clang::targets::ARMTargetInfo", ptr %4, i32 0, i32 9
  %18 = load i32, ptr %17, align 8
  %19 = icmp uge i32 %18, 7
  br label %20

20:                                               ; preds = %16, %12
  %21 = phi i1 [ false, %12 ], [ %19, %16 ]
  br label %22

22:                                               ; preds = %20, %8
  %23 = phi i1 [ true, %8 ], [ %21, %20 ]
  %24 = zext i1 %23 to i8
  store i8 %24, ptr %3, align 1
  %25 = getelementptr inbounds nuw %"class.clang::targets::ARMTargetInfo", ptr %4, i32 0, i32 8
  %26 = load i32, ptr %25, align 4
  %27 = icmp eq i32 %26, 3
  br i1 %27, label %28, label %35

28:                                               ; preds = %22
  %29 = getelementptr inbounds nuw %"class.clang::TargetInfo", ptr %4, i32 0, i32 19
  store i8 32, ptr %29, align 2
  %30 = load i8, ptr %3, align 1
  %31 = trunc i8 %30 to i1
  br i1 %31, label %32, label %34

32:                                               ; preds = %28
  %33 = getelementptr inbounds nuw %"class.clang::TargetInfo", ptr %4, i32 0, i32 20
  store i8 32, ptr %33, align 1
  br label %34

34:                                               ; preds = %32, %28
  br label %42

35:                                               ; preds = %22
  %36 = getelementptr inbounds nuw %"class.clang::TargetInfo", ptr %4, i32 0, i32 19
  store i8 64, ptr %36, align 2
  %37 = load i8, ptr %3, align 1
  %38 = trunc i8 %37 to i1
  br i1 %38, label %39, label %41

39:                                               ; preds = %35
  %40 = getelementptr inbounds nuw %"class.clang::TargetInfo", ptr %4, i32 0, i32 20
  store i8 64, ptr %40, align 1
  br label %41

41:                                               ; preds = %39, %35
  br label %42

42:                                               ; preds = %41, %34
  ret void
}