; Function Attrs: mustprogress nofree norecurse nosync nounwind willreturn memory(argmem: readwrite) uwtable
define hidden void @_ZN5clang7targets13ARMTargetInfo9setAtomicEv(ptr nocapture noundef nonnull align 8 dereferenceable(624) %0) local_unnamed_addr #6 align 2 {
  %2 = getelementptr inbounds nuw i8, ptr %0, i64 596
  %3 = load i32, ptr %2, align 4
  %4 = icmp eq i32 %3, 1
  %5 = getelementptr inbounds nuw i8, ptr %0, i64 608
  %6 = load i32, ptr %5, align 8
  %7 = icmp ugt i32 %6, 5
  %or.cond = select i1 %4, i1 %7, i1 false
  br i1 %or.cond, label %.thread6, label %8

8:                                                ; preds = %1
  %9 = icmp eq i32 %3, 2
  br i1 %9, label %10, label %.thread

10:                                               ; preds = %8
  %11 = icmp ugt i32 %6, 6
  %12 = getelementptr inbounds nuw i8, ptr %0, i64 604
  %13 = load i32, ptr %12, align 4
  %14 = icmp eq i32 %13, 3
  %15 = getelementptr inbounds nuw i8, ptr %0, i64 286
  br i1 %14, label %24, label %27

.thread6:                                         ; preds = %1
  %16 = getelementptr inbounds nuw i8, ptr %0, i64 604
  %17 = load i32, ptr %16, align 4
  %18 = icmp eq i32 %17, 3
  %19 = getelementptr inbounds nuw i8, ptr %0, i64 286
  br i1 %18, label %.thread7, label %.thread8

.thread8:                                         ; preds = %.thread6
  store i8 64, ptr %19, align 2
  br label %28

.thread7:                                         ; preds = %.thread6
  store i8 32, ptr %19, align 2
  br label %25

.thread:                                          ; preds = %8
  %20 = getelementptr inbounds nuw i8, ptr %0, i64 604
  %21 = load i32, ptr %20, align 4
  %22 = icmp eq i32 %21, 3
  %23 = getelementptr inbounds nuw i8, ptr %0, i64 286
  br i1 %22, label %.thread4, label %.thread5

.thread5:                                         ; preds = %.thread
  store i8 64, ptr %23, align 2
  br label %30

.thread4:                                         ; preds = %.thread
  store i8 32, ptr %23, align 2
  br label %30

24:                                               ; preds = %10
  store i8 32, ptr %15, align 2
  br i1 %11, label %25, label %30

25:                                               ; preds = %.thread7, %24
  %26 = getelementptr inbounds nuw i8, ptr %0, i64 287
  store i8 32, ptr %26, align 1
  br label %30

27:                                               ; preds = %10
  store i8 64, ptr %15, align 2
  br i1 %11, label %28, label %30

28:                                               ; preds = %.thread8, %27
  %29 = getelementptr inbounds nuw i8, ptr %0, i64 287
  store i8 64, ptr %29, align 1
  br label %30

30:                                               ; preds = %.thread5, %.thread4, %27, %28, %24, %25
  ret void
}